; Function Attrs: mustprogress nofree norecurse nosync nounwind willreturn memory(read, inaccessiblemem: none) uwtable
define dso_local range(i32 -32768, 32768) i32 @stbtt_GetCodepointKernAdvance(ptr noundef readonly captures(none) %0, i32 noundef %1, i32 noundef %2) local_unnamed_addr #2 {
  %4 = getelementptr inbounds nuw i8, ptr %0, i64 44
  %5 = load i32, ptr %4, align 4
  %.not = icmp eq i32 %5, 0
  br i1 %.not, label %stbtt_GetGlyphKernAdvance.exit, label %6

6:                                                ; preds = %3
  %7 = tail call i32 @stbtt_FindGlyphIndex(ptr noundef nonnull %0, i32 noundef %1)
  %8 = tail call i32 @stbtt_FindGlyphIndex(ptr noundef nonnull %0, i32 noundef %2)
  %9 = getelementptr inbounds nuw i8, ptr %0, i64 8
  %10 = load ptr, ptr %9, align 8
  %11 = sext i32 %5 to i64
  %12 = getelementptr inbounds i8, ptr %10, i64 %11
  %13 = getelementptr inbounds nuw i8, ptr %12, i64 2
  %.val32.i = load i8, ptr %13, align 1
  %14 = getelementptr i8, ptr %12, i64 3
  %.val33.i = load i8, ptr %14, align 1
  %15 = zext i8 %.val32.i to i16
  %16 = shl nuw i16 %15, 8
  %17 = zext i8 %.val33.i to i16
  %18 = or disjoint i16 %16, %17
  %19 = icmp eq i16 %18, 0
  br i1 %19, label %stbtt_GetGlyphKernAdvance.exit, label %20

20:                                               ; preds = %6
  %21 = getelementptr inbounds nuw i8, ptr %12, i64 8
  %.val30.i = load i8, ptr %21, align 1
  %22 = getelementptr i8, ptr %12, i64 9
  %.val31.i = load i8, ptr %22, align 1
  %23 = zext i8 %.val30.i to i16
  %24 = shl nuw i16 %23, 8
  %25 = zext i8 %.val31.i to i16
  %26 = or disjoint i16 %24, %25
  %.not27.i = icmp eq i16 %26, 1
  br i1 %.not27.i, label %27, label %stbtt_GetGlyphKernAdvance.exit

27:                                               ; preds = %20
  %28 = getelementptr inbounds nuw i8, ptr %12, i64 10
  %.val.i = load i8, ptr %28, align 1
  %29 = getelementptr i8, ptr %12, i64 11
  %.val29.i = load i8, ptr %29, align 1
  %30 = zext i8 %.val.i to i32
  %31 = shl nuw nsw i32 %30, 8
  %32 = zext i8 %.val29.i to i32
  %33 = or disjoint i32 %31, %32
  %34 = shl i32 %7, 16
  %35 = or i32 %34, %8
  %.not2836.i = icmp eq i32 %33, 0
  br i1 %.not2836.i, label %stbtt_GetGlyphKernAdvance.exit, label %.lr.ph.i

.lr.ph.i:                                         ; preds = %27
  %36 = add nsw i32 %33, -1
  %37 = getelementptr inbounds nuw i8, ptr %12, i64 18
  br label %38

38:                                               ; preds = %77, %.lr.ph.i
  %.02238.i = phi i32 [ %36, %.lr.ph.i ], [ %.1.i, %77 ]
  %.02337.i = phi i32 [ 0, %.lr.ph.i ], [ %.124.i, %77 ]
  %39 = add nsw i32 %.02337.i, %.02238.i
  %40 = ashr i32 %39, 1
  %41 = mul nsw i32 %40, 6
  %42 = sext i32 %41 to i64
  %43 = getelementptr inbounds i8, ptr %37, i64 %42
  %44 = load i8, ptr %43, align 1
  %45 = zext i8 %44 to i32
  %46 = shl nuw i32 %45, 24
  %47 = getelementptr inbounds nuw i8, ptr %43, i64 1
  %48 = load i8, ptr %47, align 1
  %49 = zext i8 %48 to i32
  %50 = shl nuw nsw i32 %49, 16
  %51 = or disjoint i32 %50, %46
  %52 = getelementptr inbounds nuw i8, ptr %43, i64 2
  %53 = load i8, ptr %52, align 1
  %54 = zext i8 %53 to i32
  %55 = shl nuw nsw i32 %54, 8
  %56 = or disjoint i32 %51, %55
  %57 = getelementptr inbounds nuw i8, ptr %43, i64 3
  %58 = load i8, ptr %57, align 1
  %59 = zext i8 %58 to i32
  %60 = or disjoint i32 %56, %59
  %61 = icmp ult i32 %35, %60
  br i1 %61, label %62, label %64

62:                                               ; preds = %38
  %63 = add nsw i32 %40, -1
  br label %77

64:                                               ; preds = %38
  %65 = icmp ugt i32 %35, %60
  br i1 %65, label %66, label %68

66:                                               ; preds = %64
  %67 = add nsw i32 %40, 1
  br label %77

68:                                               ; preds = %64
  %69 = getelementptr inbounds nuw i8, ptr %12, i64 22
  %70 = getelementptr inbounds i8, ptr %69, i64 %42
  %.val34.i = load i8, ptr %70, align 1
  %71 = getelementptr i8, ptr %70, i64 1
  %.val35.i = load i8, ptr %71, align 1
  %72 = zext i8 %.val34.i to i16
  %73 = shl nuw i16 %72, 8
  %74 = zext i8 %.val35.i to i16
  %75 = or disjoint i16 %73, %74
  %76 = sext i16 %75 to i32
  br label %stbtt_GetGlyphKernAdvance.exit

77:                                               ; preds = %66, %62
  %.124.i = phi i32 [ %.02337.i, %62 ], [ %67, %66 ]
  %.1.i = phi i32 [ %63, %62 ], [ %.02238.i, %66 ]
  %.not28.i = icmp sgt i32 %.124.i, %.1.i
  br i1 %.not28.i, label %stbtt_GetGlyphKernAdvance.exit, label %38, !llvm.loop !16

stbtt_GetGlyphKernAdvance.exit:                   ; preds = %77, %68, %27, %20, %6, %3
  %.0 = phi i32 [ 0, %3 ], [ %76, %68 ], [ 0, %6 ], [ 0, %20 ], [ 0, %27 ], [ 0, %77 ]
  ret i32 %.0
}